; ModuleID = '35/1692.c'
source_filename = "35/1692.c"
target datalayout = "e-m:e-p270:32:32-p271:32:32-p272:64:64-i64:64-f80:128-n8:16:32:64-S128"
target triple = "x86_64-pc-linux-gnu"

@.str = private unnamed_addr constant [6 x i8] c"%d,%d\00", align 1
@.str.1 = private unnamed_addr constant [3 x i8] c"%d\00", align 1
@.str.2 = private unnamed_addr constant [7 x i8] c"%d+%d\0A\00", align 1
@.str.3 = private unnamed_addr constant [4 x i8] c"No\0A\00", align 1

; Function Attrs: noinline nounwind uwtable
define dso_local i32 @main(i32 %0, i8** %1) #0 {
  %3 = alloca i32, align 4
  %4 = alloca i32, align 4
  %5 = alloca i8**, align 8
  %6 = alloca i32, align 4
  %7 = alloca i32, align 4
  %8 = alloca i32, align 4
  %9 = alloca i32, align 4
  %10 = alloca i32, align 4
  %11 = alloca i32, align 4
  %12 = alloca i32, align 4
  %13 = alloca i32, align 4
  %14 = alloca [8 x [8 x i32]], align 16
  %15 = alloca i32, align 4
  %16 = alloca i32, align 4
  store i32 0, i32* %3, align 4
  store i32 %0, i32* %4, align 4
  store i8** %1, i8*** %5, align 8
  store i32 0, i32* %11, align 4
  %17 = call i32 (i8*, ...) @__isoc99_scanf(i8* getelementptr inbounds ([6 x i8], [6 x i8]* @.str, i64 0, i64 0), i32* %6, i32* %7)
  store i32 0, i32* %8, align 4
  br label %18

18:                                               ; preds = %39, %2
  %19 = load i32, i32* %8, align 4
  %20 = load i32, i32* %6, align 4
  %21 = icmp slt i32 %19, %20
  br i1 %21, label %22, label %42

22:                                               ; preds = %18
  store i32 0, i32* %9, align 4
  br label %23

23:                                               ; preds = %35, %22
  %24 = load i32, i32* %9, align 4
  %25 = load i32, i32* %7, align 4
  %26 = icmp slt i32 %24, %25
  br i1 %26, label %27, label %38

27:                                               ; preds = %23
  %28 = load i32, i32* %8, align 4
  %29 = sext i32 %28 to i64
  %30 = getelementptr inbounds [8 x [8 x i32]], [8 x [8 x i32]]* %14, i64 0, i64 %29
  %31 = load i32, i32* %9, align 4
  %32 = sext i32 %31 to i64
  %33 = getelementptr inbounds [8 x i32], [8 x i32]* %30, i64 0, i64 %32
  %34 = call i32 (i8*, ...) @__isoc99_scanf(i8* getelementptr inbounds ([3 x i8], [3 x i8]* @.str.1, i64 0, i64 0), i32* %33)
  br label %35

35:                                               ; preds = %27
  %36 = load i32, i32* %9, align 4
  %37 = add nsw i32 %36, 1
  store i32 %37, i32* %9, align 4
  br label %23

38:                                               ; preds = %23
  br label %39

39:                                               ; preds = %38
  %40 = load i32, i32* %8, align 4
  %41 = add nsw i32 %40, 1
  store i32 %41, i32* %8, align 4
  br label %18

42:                                               ; preds = %18
  store i32 0, i32* %8, align 4
  br label %43

43:                                               ; preds = %124, %42
  %44 = load i32, i32* %8, align 4
  %45 = load i32, i32* %6, align 4
  %46 = icmp slt i32 %44, %45
  br i1 %46, label %47, label %127

47:                                               ; preds = %43
  %48 = load i32, i32* %8, align 4
  %49 = sext i32 %48 to i64
  %50 = getelementptr inbounds [8 x [8 x i32]], [8 x [8 x i32]]* %14, i64 0, i64 %49
  %51 = getelementptr inbounds [8 x i32], [8 x i32]* %50, i64 0, i64 0
  %52 = load i32, i32* %51, align 16
  store i32 %52, i32* %15, align 4
  store i32 0, i32* %9, align 4
  br label %53

53:                                               ; preds = %77, %47
  %54 = load i32, i32* %9, align 4
  %55 = load i32, i32* %7, align 4
  %56 = icmp slt i32 %54, %55
  br i1 %56, label %57, label %80

57:                                               ; preds = %53
  %58 = load i32, i32* %8, align 4
  %59 = sext i32 %58 to i64
  %60 = getelementptr inbounds [8 x [8 x i32]], [8 x [8 x i32]]* %14, i64 0, i64 %59
  %61 = load i32, i32* %9, align 4
  %62 = sext i32 %61 to i64
  %63 = getelementptr inbounds [8 x i32], [8 x i32]* %60, i64 0, i64 %62
  %64 = load i32, i32* %63, align 4
  %65 = load i32, i32* %15, align 4
  %66 = icmp sge i32 %64, %65
  br i1 %66, label %67, label %76

67:                                               ; preds = %57
  %68 = load i32, i32* %8, align 4
  %69 = sext i32 %68 to i64
  %70 = getelementptr inbounds [8 x [8 x i32]], [8 x [8 x i32]]* %14, i64 0, i64 %69
  %71 = load i32, i32* %9, align 4
  %72 = sext i32 %71 to i64
  %73 = getelementptr inbounds [8 x i32], [8 x i32]* %70, i64 0, i64 %72
  %74 = load i32, i32* %73, align 4
  store i32 %74, i32* %15, align 4
  %75 = load i32, i32* %9, align 4
  store i32 %75, i32* %10, align 4
  br label %76

76:                                               ; preds = %67, %57
  br label %77

77:                                               ; preds = %76
  %78 = load i32, i32* %9, align 4
  %79 = add nsw i32 %78, 1
  store i32 %79, i32* %9, align 4
  br label %53

80:                                               ; preds = %53
  %81 = getelementptr inbounds [8 x [8 x i32]], [8 x [8 x i32]]* %14, i64 0, i64 0
  %82 = load i32, i32* %10, align 4
  %83 = sext i32 %82 to i64
  %84 = getelementptr inbounds [8 x i32], [8 x i32]* %81, i64 0, i64 %83
  %85 = load i32, i32* %84, align 4
  store i32 %85, i32* %16, align 4
  store i32 0, i32* %12, align 4
  br label %86

86:                                               ; preds = %110, %80
  %87 = load i32, i32* %12, align 4
  %88 = load i32, i32* %6, align 4
  %89 = icmp slt i32 %87, %88
  br i1 %89, label %90, label %113

90:                                               ; preds = %86
  %91 = load i32, i32* %12, align 4
  %92 = sext i32 %91 to i64
  %93 = getelementptr inbounds [8 x [8 x i32]], [8 x [8 x i32]]* %14, i64 0, i64 %92
  %94 = load i32, i32* %10, align 4
  %95 = sext i32 %94 to i64
  %96 = getelementptr inbounds [8 x i32], [8 x i32]* %93, i64 0, i64 %95
  %97 = load i32, i32* %96, align 4
  %98 = load i32, i32* %16, align 4
  %99 = icmp sle i32 %97, %98
  br i1 %99, label %100, label %109

100:                                              ; preds = %90
  %101 = load i32, i32* %12, align 4
  %102 = sext i32 %101 to i64
  %103 = getelementptr inbounds [8 x [8 x i32]], [8 x [8 x i32]]* %14, i64 0, i64 %102
  %104 = load i32, i32* %10, align 4
  %105 = sext i32 %104 to i64
  %106 = getelementptr inbounds [8 x i32], [8 x i32]* %103, i64 0, i64 %105
  %107 = load i32, i32* %106, align 4
  store i32 %107, i32* %16, align 4
  %108 = load i32, i32* %12, align 4
  store i32 %108, i32* %13, align 4
  br label %109

109:                                              ; preds = %100, %90
  br label %110

110:                                              ; preds = %109
  %111 = load i32, i32* %12, align 4
  %112 = add nsw i32 %111, 1
  store i32 %112, i32* %12, align 4
  br label %86

113:                                              ; preds = %86
  %114 = load i32, i32* %16, align 4
  %115 = load i32, i32* %15, align 4
  %116 = icmp eq i32 %114, %115
  br i1 %116, label %117, label %123

117:                                              ; preds = %113
  %118 = load i32, i32* %13, align 4
  %119 = load i32, i32* %10, align 4
  %120 = call i32 (i8*, ...) @printf(i8* getelementptr inbounds ([7 x i8], [7 x i8]* @.str.2, i64 0, i64 0), i32 %118, i32 %119)
  %121 = load i32, i32* %11, align 4
  %122 = add nsw i32 %121, 1
  store i32 %122, i32* %11, align 4
  br label %123

123:                                              ; preds = %117, %113
  br label %124

124:                                              ; preds = %123
  %125 = load i32, i32* %8, align 4
  %126 = add nsw i32 %125, 1
  store i32 %126, i32* %8, align 4
  br label %43

127:                                              ; preds = %43
  %128 = load i32, i32* %11, align 4
  %129 = icmp eq i32 %128, 0
  br i1 %129, label %130, label %132

130:                                              ; preds = %127
  %131 = call i32 (i8*, ...) @printf(i8* getelementptr inbounds ([4 x i8], [4 x i8]* @.str.3, i64 0, i64 0))
  br label %132

132:                                              ; preds = %130, %127
  ret i32 0
}

declare dso_local i32 @__isoc99_scanf(i8*, ...) #1

declare dso_local i32 @printf(i8*, ...) #1


!llvm.module.flags = !{!0}
!llvm.ident = !{!1}

!0 = !{i32 1, !"wchar_size", i32 4}
!1 = !{!"clang version 10.0.0-4ubuntu1 "}
